; Function Attrs: mustprogress uwtable
define dso_local void @_Z14luaL_checktypeP9lua_Stateii(ptr noundef %0, i32 noundef %1, i32 noundef %2) local_unnamed_addr #2 {
  %4 = tail call noundef i32 @_Z8lua_typeP9lua_Statei(ptr noundef %0, i32 noundef %1)
  %.not = icmp eq i32 %4, %2
  br i1 %.not, label %6, label %5

5:                                                ; preds = %3
  tail call fastcc void @_ZL9tag_errorP9lua_Stateii(ptr noundef %0, i32 noundef %1, i32 noundef %2) #11
  unreachable

6:                                                ; preds = %3
  ret void
}